target datalayout = "e-m:e-p270:32:32-p271:32:32-p272:64:64-i64:64-i128:128-f80:128-n8:16:32:64-S128"
target triple = "x86_64-pc-linux-gnu"

%struct.ReorderBuffer = type { ptr, %struct.dlist_head, %struct.dlist_head, %struct.dclist_head, i32, ptr, ptr, ptr, ptr, ptr, ptr, ptr, ptr, ptr, ptr, ptr, ptr, ptr, ptr, ptr, ptr, ptr, ptr, ptr, ptr, i8, ptr, ptr, ptr, ptr, i64, ptr, i64, i64, ptr, i64, i64, i64, i64, i64, i64, i64, i64 }
%struct.dlist_head = type { %struct.dlist_node }
%struct.dlist_node = type { ptr, ptr }
%struct.dclist_head = type { %struct.dlist_head, i32 }
%struct.ReorderBufferChange = type { i64, i32, ptr, i16, %union.anon, %struct.dlist_node }
%union.anon = type { %struct.anon }
%struct.anon = type { %struct.RelFileLocator, i8, ptr, ptr }
%struct.RelFileLocator = type { i32, i32, i32 }
%struct.anon.1 = type { ptr, i64, ptr }
%struct.__jmp_buf_tag = type { [8 x i64], i32, %struct.__sigset_t }
%struct.__sigset_t = type { [16 x i64] }

@CurrentMemoryContext = external global ptr, align 8
@PG_exception_stack = external global ptr, align 8
@error_context_stack = external global ptr, align 8

; Function Attrs: nounwind uwtable
define dso_local ptr @ReorderBufferGetChange(ptr noundef %0) #0 {
  %2 = alloca ptr, align 8
  %3 = alloca ptr, align 8
  store ptr %0, ptr %2, align 8
  call void @llvm.lifetime.start.p0(i64 8, ptr %3) #13
  %4 = load ptr, ptr %2, align 8
  %5 = getelementptr inbounds nuw %struct.ReorderBuffer, ptr %4, i32 0, i32 27
  %6 = load ptr, ptr %5, align 8
  %7 = call ptr @MemoryContextAlloc(ptr noundef %6, i64 noundef 80)
  store ptr %7, ptr %3, align 8
  %8 = load ptr, ptr %3, align 8
  call void @llvm.memset.p0.i64(ptr align 8 %8, i8 0, i64 80, i1 false)
  %9 = load ptr, ptr %3, align 8
  call void @llvm.lifetime.end.p0(i64 8, ptr %3) #13
  ret ptr %9
}

; Function Attrs: inlinehint nounwind uwtable
define internal ptr @MemoryContextSwitchTo(ptr noundef %0) #4 {
  %2 = alloca ptr, align 8
  %3 = alloca ptr, align 8
  store ptr %0, ptr %2, align 8
  call void @llvm.lifetime.start.p0(i64 8, ptr %3) #13
  %4 = load ptr, ptr @CurrentMemoryContext, align 8
  store ptr %4, ptr %3, align 8
  %5 = load ptr, ptr %2, align 8
  store ptr %5, ptr @CurrentMemoryContext, align 8
  %6 = load ptr, ptr %3, align 8
  call void @llvm.lifetime.end.p0(i64 8, ptr %3) #13
  ret ptr %6
}

; Function Attrs: nounwind uwtable
define dso_local void @ReorderBufferQueueMessage(ptr noundef %0, i32 noundef %1, ptr noundef %2, i64 noundef %3, i1 noundef zeroext %4, ptr noundef %5, i64 noundef %6, ptr noundef %7) #0 {
  %9 = alloca ptr, align 8
  %10 = alloca i32, align 4
  %11 = alloca ptr, align 8
  %12 = alloca i64, align 8
  %13 = alloca i8, align 1
  %14 = alloca ptr, align 8
  %15 = alloca i64, align 8
  %16 = alloca ptr, align 8
  %17 = alloca ptr, align 8
  %18 = alloca ptr, align 8
  %19 = alloca ptr, align 8
  %20 = alloca ptr, align 8
  %21 = alloca ptr, align 8
  %22 = alloca ptr, align 8
  %23 = alloca [1 x %struct.__jmp_buf_tag], align 16
  %24 = alloca i8, align 1
  store ptr %0, ptr %9, align 8
  store i32 %1, ptr %10, align 4
  store ptr %2, ptr %11, align 8
  store i64 %3, ptr %12, align 8
  %25 = zext i1 %4 to i8
  store i8 %25, ptr %13, align 1
  store ptr %5, ptr %14, align 8
  store i64 %6, ptr %15, align 8
  store ptr %7, ptr %16, align 8
  %26 = load i8, ptr %13, align 1, !range !6, !noundef !7
  %27 = trunc i8 %26 to i1
  br i1 %27, label %28, label %63

28:                                               ; preds = %8
  call void @llvm.lifetime.start.p0(i64 8, ptr %17) #13
  call void @llvm.lifetime.start.p0(i64 8, ptr %18) #13
  %29 = load ptr, ptr %9, align 8
  %30 = getelementptr inbounds nuw %struct.ReorderBuffer, ptr %29, i32 0, i32 26
  %31 = load ptr, ptr %30, align 8
  %32 = call ptr @MemoryContextSwitchTo(ptr noundef %31)
  store ptr %32, ptr %17, align 8
  %33 = load ptr, ptr %9, align 8
  %34 = call ptr @ReorderBufferGetChange(ptr noundef %33)
  store ptr %34, ptr %18, align 8
  %35 = load ptr, ptr %18, align 8
  %36 = getelementptr inbounds nuw %struct.ReorderBufferChange, ptr %35, i32 0, i32 1
  store i32 3, ptr %36, align 8
  %37 = load ptr, ptr %14, align 8
  %38 = call ptr @pstrdup(ptr noundef %37)
  %39 = load ptr, ptr %18, align 8
  %40 = getelementptr inbounds nuw %struct.ReorderBufferChange, ptr %39, i32 0, i32 4
  %41 = getelementptr inbounds nuw %struct.anon.1, ptr %40, i32 0, i32 0
  store ptr %38, ptr %41, align 8
  %42 = load i64, ptr %15, align 8
  %43 = load ptr, ptr %18, align 8
  %44 = getelementptr inbounds nuw %struct.ReorderBufferChange, ptr %43, i32 0, i32 4
  %45 = getelementptr inbounds nuw %struct.anon.1, ptr %44, i32 0, i32 1
  store i64 %42, ptr %45, align 8
  %46 = load i64, ptr %15, align 8
  %47 = call ptr @palloc(i64 noundef %46)
  %48 = load ptr, ptr %18, align 8
  %49 = getelementptr inbounds nuw %struct.ReorderBufferChange, ptr %48, i32 0, i32 4
  %50 = getelementptr inbounds nuw %struct.anon.1, ptr %49, i32 0, i32 2
  store ptr %47, ptr %50, align 8
  %51 = load ptr, ptr %18, align 8
  %52 = getelementptr inbounds nuw %struct.ReorderBufferChange, ptr %51, i32 0, i32 4
  %53 = getelementptr inbounds nuw %struct.anon.1, ptr %52, i32 0, i32 2
  %54 = load ptr, ptr %53, align 8
  %55 = load ptr, ptr %16, align 8
  %56 = load i64, ptr %15, align 8
  call void @llvm.memcpy.p0.p0.i64(ptr align 1 %54, ptr align 1 %55, i64 %56, i1 false)
  %57 = load ptr, ptr %9, align 8
  %58 = load i32, ptr %10, align 4
  %59 = load i64, ptr %12, align 8
  %60 = load ptr, ptr %18, align 8
  call void @ReorderBufferQueueChange(ptr noundef %57, i32 noundef %58, i64 noundef %59, ptr noundef %60, i1 noundef zeroext false)
  %61 = load ptr, ptr %17, align 8
  %62 = call ptr @MemoryContextSwitchTo(ptr noundef %61)
  call void @llvm.lifetime.end.p0(i64 8, ptr %18) #13
  call void @llvm.lifetime.end.p0(i64 8, ptr %17) #13
  br label %102

63:                                               ; preds = %8
  call void @llvm.lifetime.start.p0(i64 8, ptr %19) #13
  store ptr null, ptr %19, align 8
  call void @llvm.lifetime.start.p0(i64 8, ptr %20) #13
  %64 = load ptr, ptr %11, align 8
  store volatile ptr %64, ptr %20, align 8
  %65 = load i32, ptr %10, align 4
  %66 = icmp ne i32 %65, 0
  br i1 %66, label %67, label %72

67:                                               ; preds = %63
  %68 = load ptr, ptr %9, align 8
  %69 = load i32, ptr %10, align 4
  %70 = load i64, ptr %12, align 8
  %71 = call ptr @ReorderBufferTXNByXid(ptr noundef %68, i32 noundef %69, i1 noundef zeroext true, ptr noundef null, i64 noundef %70, i1 noundef zeroext true)
  store ptr %71, ptr %19, align 8
  br label %72

72:                                               ; preds = %67, %63
  %73 = load volatile ptr, ptr %20, align 8
  call void @SetupHistoricSnapshot(ptr noundef %73, ptr noundef null)
  br label %74

74:                                               ; preds = %72
  call void @llvm.lifetime.start.p0(i64 8, ptr %21) #13
  %75 = load ptr, ptr @PG_exception_stack, align 8
  store ptr %75, ptr %21, align 8
  call void @llvm.lifetime.start.p0(i64 8, ptr %22) #13
  %76 = load ptr, ptr @error_context_stack, align 8
  store ptr %76, ptr %22, align 8
  call void @llvm.lifetime.start.p0(i64 200, ptr %23) #13
  call void @llvm.lifetime.start.p0(i64 1, ptr %24) #13
  store i8 0, ptr %24, align 1
  %77 = getelementptr inbounds [1 x %struct.__jmp_buf_tag], ptr %23, i64 0, i64 0
  %78 = call i32 @__sigsetjmp(ptr noundef %77, i32 noundef 0) #16
  %79 = icmp eq i32 %78, 0
  br i1 %79, label %80, label %90

80:                                               ; preds = %74
  store ptr %23, ptr @PG_exception_stack, align 8
  %81 = load ptr, ptr %9, align 8
  %82 = getelementptr inbounds nuw %struct.ReorderBuffer, ptr %81, i32 0, i32 10
  %83 = load ptr, ptr %82, align 8
  %84 = load ptr, ptr %9, align 8
  %85 = load ptr, ptr %19, align 8
  %86 = load i64, ptr %12, align 8
  %87 = load ptr, ptr %14, align 8
  %88 = load i64, ptr %15, align 8
  %89 = load ptr, ptr %16, align 8
  call void %83(ptr noundef %84, ptr noundef %85, i64 noundef %86, i1 noundef zeroext false, ptr noundef %87, i64 noundef %88, ptr noundef %89)
  call void @TeardownHistoricSnapshot(i1 noundef zeroext false)
  br label %93

90:                                               ; preds = %74
  %91 = load ptr, ptr %21, align 8
  store ptr %91, ptr @PG_exception_stack, align 8
  %92 = load ptr, ptr %22, align 8
  store ptr %92, ptr @error_context_stack, align 8
  call void @TeardownHistoricSnapshot(i1 noundef zeroext true)
  call void @pg_re_throw() #17
  unreachable

93:                                               ; preds = %80
  %94 = load i8, ptr %24, align 1, !range !6, !noundef !7
  %95 = trunc i8 %94 to i1
  br i1 %95, label %96, label %97

96:                                               ; preds = %93
  call void @pg_re_throw() #17
  unreachable

97:                                               ; preds = %93
  %98 = load ptr, ptr %21, align 8
  store ptr %98, ptr @PG_exception_stack, align 8
  %99 = load ptr, ptr %22, align 8
  store ptr %99, ptr @error_context_stack, align 8
  call void @llvm.lifetime.end.p0(i64 1, ptr %24) #13
  call void @llvm.lifetime.end.p0(i64 200, ptr %23) #13
  call void @llvm.lifetime.end.p0(i64 8, ptr %22) #13
  call void @llvm.lifetime.end.p0(i64 8, ptr %21) #13
  br label %100

100:                                              ; preds = %97
  br label %101

101:                                              ; preds = %100
  call void @llvm.lifetime.end.p0(i64 8, ptr %20) #13
  call void @llvm.lifetime.end.p0(i64 8, ptr %19) #13
  br label %102

102:                                              ; preds = %101, %28
  ret void
}