; Function Attrs: nounwind uwtable
define dso_local void @ReorderBufferQueueMessage(ptr noundef %0, i32 noundef %1, ptr noundef %2, i64 noundef %3, i1 noundef zeroext %4, ptr noundef %5, i64 noundef %6, ptr noundef %7) local_unnamed_addr #0 {
  %9 = alloca ptr, align 8
  %10 = alloca [1 x %struct.__jmp_buf_tag], align 16
  br i1 %4, label %11, label %24

11:                                               ; preds = %8
  %12 = getelementptr inbounds nuw i8, ptr %0, i64 240
  %13 = load ptr, ptr %12, align 8
  %14 = load ptr, ptr @CurrentMemoryContext, align 8
  store ptr %13, ptr @CurrentMemoryContext, align 8
  %15 = getelementptr inbounds nuw i8, ptr %0, i64 248
  %16 = load ptr, ptr %15, align 8
  %17 = call noundef ptr @MemoryContextAlloc(ptr noundef %16, i64 noundef 80) #19
  call void @llvm.memset.p0.i64(ptr noundef nonnull align 8 dereferenceable(80) %17, i8 0, i64 80, i1 false)
  %18 = getelementptr inbounds nuw i8, ptr %17, i64 8
  store i32 3, ptr %18, align 8
  %19 = call ptr @pstrdup(ptr noundef %5) #19
  %20 = getelementptr inbounds nuw i8, ptr %17, i64 32
  store ptr %19, ptr %20, align 8
  %21 = getelementptr inbounds nuw i8, ptr %17, i64 40
  store i64 %6, ptr %21, align 8
  %22 = call ptr @palloc(i64 noundef %6) #19
  %23 = getelementptr inbounds nuw i8, ptr %17, i64 48
  store ptr %22, ptr %23, align 8
  call void @llvm.memcpy.p0.p0.i64(ptr align 1 %22, ptr align 1 %7, i64 %6, i1 false)
  call void @ReorderBufferQueueChange(ptr noundef %0, i32 noundef %1, i64 noundef %3, ptr noundef nonnull %17, i1 noundef zeroext false)
  store ptr %14, ptr @CurrentMemoryContext, align 8
  br label %36

24:                                               ; preds = %8
  call void @llvm.lifetime.start.p0(i64 8, ptr nonnull %9)
  store volatile ptr %2, ptr %9, align 8
  %.not = icmp eq i32 %1, 0
  br i1 %.not, label %27, label %25

25:                                               ; preds = %24
  %26 = call fastcc ptr @ReorderBufferTXNByXid(ptr noundef %0, i32 noundef %1, i1 noundef zeroext true, ptr noundef null, i64 noundef %3, i1 noundef zeroext true)
  br label %27

27:                                               ; preds = %25, %24
  %.0 = phi ptr [ %26, %25 ], [ null, %24 ]
  %.0..0..0..0.4 = load volatile ptr, ptr %9, align 8
  call void @SetupHistoricSnapshot(ptr noundef %.0..0..0..0.4, ptr noundef null) #19
  %28 = load ptr, ptr @PG_exception_stack, align 8
  %29 = load ptr, ptr @error_context_stack, align 8
  call void @llvm.lifetime.start.p0(i64 200, ptr nonnull %10) #19
  %30 = call i32 @__sigsetjmp(ptr noundef nonnull %10, i32 noundef 0) #22
  %31 = icmp eq i32 %30, 0
  br i1 %31, label %32, label %35

32:                                               ; preds = %27
  store ptr %10, ptr @PG_exception_stack, align 8
  %33 = getelementptr inbounds nuw i8, ptr %0, i64 112
  %34 = load ptr, ptr %33, align 8
  call void %34(ptr noundef %0, ptr noundef %.0, i64 noundef %3, i1 noundef zeroext false, ptr noundef %5, i64 noundef %6, ptr noundef %7) #19
  call void @TeardownHistoricSnapshot(i1 noundef zeroext false) #19
  store ptr %28, ptr @PG_exception_stack, align 8
  store ptr %29, ptr @error_context_stack, align 8
  call void @llvm.lifetime.end.p0(i64 200, ptr nonnull %10) #19
  call void @llvm.lifetime.end.p0(i64 8, ptr nonnull %9)
  br label %36

35:                                               ; preds = %27
  store ptr %28, ptr @PG_exception_stack, align 8
  store ptr %29, ptr @error_context_stack, align 8
  call void @TeardownHistoricSnapshot(i1 noundef zeroext true) #19
  call void @pg_re_throw() #23
  unreachable

36:                                               ; preds = %32, %11
  ret void
}